BL51 BANKED LINKER/LOCATER V5.00                                                        02/28/2014  09:56:02  PAGE 1


BL51 BANKED LINKER/LOCATER V5.00, INVOKED BY:
C:\KEIL\C51\BIN\BL51.EXE TEST67.obj TO TEST67 RAMSIZE (256)


MEMORY MODEL: SMALL


INPUT MODULES INCLUDED:
  TEST67.obj (TEST67)
  C:\KEIL\C51\LIB\C51S.LIB (?C_STARTUP)


LINK MAP OF MODULE:  TEST67 (TEST67)


            TYPE    BASE      LENGTH    RELOCATION   SEGMENT NAME
            -----------------------------------------------------

            * * * * * * *   D A T A   M E M O R Y   * * * * * * *
            REG     0000H     0008H     ABSOLUTE     "REG BANK 0"
            DATA    0008H     0002H     UNIT         ?DT?TEST67
            IDATA   000AH     0001H     UNIT         ?STACK

            * * * * * * *   C O D E   M E M O R Y   * * * * * * *
            CODE    0000H     0003H     ABSOLUTE     
            CODE    0003H     005CH     UNIT         ?PR?MAIN?TEST67
            CODE    005FH     002AH     UNIT         ?PR?LCD1602_INIT?TEST67
            CODE    0089H     0018H     UNIT         ?PR?_LCD1602_WRITE_ADDRESS?TEST67
            CODE    00A1H     0012H     UNIT         ?PR?_DELAY1602?TEST67
            CODE    00B3H     0010H     UNIT         ?PR?_LCD1602_WRITE_COM?TEST67
            CODE    00C3H     000EH     UNIT         ?PR?LCD1602_BUSY?TEST67
            CODE    00D1H     000EH     UNIT         ?PR?_LCD1602_WRITE_DATA_BUSY?TEST67
            CODE    00DFH     000CH     UNIT         ?C_C51STARTUP
            CODE    00EBH     000AH     UNIT         ?PR?_LCD1602_DISP?TEST67
            CODE    00F5H     0006H     UNIT         ?PR?_LCD1602_WRITE_COM_BUSY?TEST67



OVERLAY MAP OF MODULE:   TEST67 (TEST67)


SEGMENT
  +--> CALLED SEGMENT
---------------------
?C_C51STARTUP
  +--> ?PR?MAIN?TEST67

?PR?MAIN?TEST67
  +--> ?PR?LCD1602_INIT?TEST67
  +--> ?PR?_LCD1602_DISP?TEST67

?PR?LCD1602_INIT?TEST67
  +--> ?PR?_LCD1602_WRITE_COM?TEST67
  +--> ?PR?_LCD1602_WRITE_COM_BUSY?TEST67

?PR?_LCD1602_WRITE_COM?TEST67
  +--> ?PR?_DELAY1602?TEST67

BL51 BANKED LINKER/LOCATER V5.00                                                      02/28/2014  09:56:02  PAGE 2


?PR?_LCD1602_WRITE_COM_BUSY?TEST67
  +--> ?PR?LCD1602_BUSY?TEST67
  +--> ?PR?_LCD1602_WRITE_COM?TEST67

?PR?_LCD1602_DISP?TEST67
  +--> ?PR?_LCD1602_WRITE_ADDRESS?TEST67
  +--> ?PR?_LCD1602_WRITE_DATA_BUSY?TEST67

?PR?_LCD1602_WRITE_ADDRESS?TEST67
  +--> ?PR?_LCD1602_WRITE_COM_BUSY?TEST67

?PR?_LCD1602_WRITE_DATA_BUSY?TEST67
  +--> ?PR?LCD1602_BUSY?TEST67



SYMBOL TABLE OF MODULE:  TEST67 (TEST67)

  VALUE           TYPE          NAME
  ----------------------------------

  -------         MODULE        TEST67
  C:0000H         SYMBOL        _ICE_DUMMY_
  D:0080H         PUBLIC        P0
  B:00B0H.2       PUBLIC        RE_DE
  D:00A0H         PUBLIC        P2
  D:00B0H         PUBLIC        P3
  B:00D0H.6       PUBLIC        AC
  B:00B0H.4       PUBLIC        T0
  B:00B0H.5       PUBLIC        T1
  B:00A8H.7       PUBLIC        EA
  B:0090H.0       PUBLIC        T2
  C:00B8H         PUBLIC        _LCD1602_Write_com
  C:00D1H         PUBLIC        _LCD1602_Write_data_busy
  B:0080H.0       PUBLIC        P0_0
  B:0090H.0       PUBLIC        P1_0
  B:0080H.1       PUBLIC        P0_1
  B:00D0H.1       PUBLIC        FL
  B:00A0H.0       PUBLIC        P2_0
  B:0090H.1       PUBLIC        P1_1
  B:0080H.2       PUBLIC        P0_2
  B:00B0H.0       PUBLIC        P3_0
  B:00A0H.1       PUBLIC        P2_1
  B:0090H.2       PUBLIC        P1_2
  B:0080H.3       PUBLIC        P0_3
  B:00B0H.1       PUBLIC        P3_1
  B:00A0H.2       PUBLIC        P2_2
  B:0090H.3       PUBLIC        P1_3
  B:0080H.4       PUBLIC        P0_4
  B:00B0H.2       PUBLIC        P3_2
  B:00A0H.3       PUBLIC        P2_3
  B:0090H.4       PUBLIC        P1_4
  B:0080H.5       PUBLIC        P0_5
  B:00C8H.6       PUBLIC        EXF2
  B:00B0H.7       PUBLIC        RD
  B:00B0H.3       PUBLIC        P3_3
  B:00A0H.4       PUBLIC        P2_4
BL51 BANKED LINKER/LOCATER V5.00                                                      02/28/2014  09:56:02  PAGE 3


  B:0090H.5       PUBLIC        P1_5
  B:0080H.6       PUBLIC        P0_6
  B:00B0H.4       PUBLIC        P3_4
  B:00A0H.5       PUBLIC        P2_5
  B:0090H.6       PUBLIC        P1_6
  B:0080H.7       PUBLIC        P0_7
  B:00B0H.5       PUBLIC        P3_5
  B:00A8H.4       PUBLIC        ES
  B:00A0H.6       PUBLIC        P2_6
  B:0090H.7       PUBLIC        P1_7
  B:00B0H.6       PUBLIC        P3_6
  B:00A0H.7       PUBLIC        P2_7
  B:00B0H.7       PUBLIC        P3_7
  B:0098H.0       PUBLIC        RI
  C:00A1H         PUBLIC        _Delay1602
  B:00D0H.7       PUBLIC        CY
  B:00B0H.2       PUBLIC        INT0
  B:00B0H.3       PUBLIC        INT1
  B:0098H.1       PUBLIC        TI
  D:0008H         PUBLIC        DISbuf
  B:00B8H.4       PUBLIC        PS
  B:0090H.1       PUBLIC        T2EX
  B:00A0H.5       PUBLIC        RS
  B:00D0H.2       PUBLIC        OV
  C:0003H         PUBLIC        main
  B:00A0H.4       PUBLIC        RW
  B:00C8H.1       PUBLIC        C_T2
  B:00B0H.6       PUBLIC        WR
  B:00C8H.5       PUBLIC        RCLK
  B:00C8H.4       PUBLIC        TCLK
  D:0099H         PUBLIC        SBUF
  C:00F5H         PUBLIC        _LCD1602_Write_com_busy
  D:0098H         PUBLIC        SCON
  C:005FH         PUBLIC        LCD1602_init
  D:0089H         PUBLIC        TMOD
  C:0089H         PUBLIC        _LCD1602_Write_address
  B:0088H.1       PUBLIC        IE0
  B:0088H.3       PUBLIC        IE1
  C:00C3H         PUBLIC        LCD1602_busy
  B:00A0H.3       PUBLIC        E
  B:00C8H.0       PUBLIC        CP_RL2
  B:00A8H.1       PUBLIC        ET0
  B:00A8H.3       PUBLIC        ET1
  B:0088H.5       PUBLIC        TF0
  B:00A8H.5       PUBLIC        ET2
  B:0088H.7       PUBLIC        TF1
  B:00C8H.7       PUBLIC        TF2
  B:0098H.2       PUBLIC        RB8
  B:00A8H.0       PUBLIC        EX0
  B:0088H.0       PUBLIC        IT0
  D:008DH         PUBLIC        TH1
  B:00A8H.2       PUBLIC        EX1
  B:0098H.3       PUBLIC        TB8
  B:0088H.2       PUBLIC        IT1
  B:00D0H.0       PUBLIC        P
  D:0009H         PUBLIC        USARTbuf
  B:0098H.7       PUBLIC        SM0
BL51 BANKED LINKER/LOCATER V5.00                                                      02/28/2014  09:56:02  PAGE 4


  B:0098H.6       PUBLIC        SM1
  D:008BH         PUBLIC        TL1
  B:0098H.5       PUBLIC        SM2
  B:00B8H.1       PUBLIC        PT0
  B:00D0H.3       PUBLIC        RS0
  B:00B8H.3       PUBLIC        PT1
  B:00D0H.4       PUBLIC        RS1
  B:00B8H.5       PUBLIC        PT2
  B:0088H.4       PUBLIC        TR0
  B:0088H.6       PUBLIC        TR1
  B:00C8H.2       PUBLIC        TR2
  B:00B8H.0       PUBLIC        PX0
  B:00B8H.2       PUBLIC        PX1
  B:00C8H.3       PUBLIC        EXEN2
  B:0098H.4       PUBLIC        REN
  B:00B0H.0       PUBLIC        RXD
  C:00EBH         PUBLIC        _LCD1602_Disp
  B:00B0H.1       PUBLIC        TXD
  B:00D0H.5       PUBLIC        F0
  -------         PROC          _DELAY1602
  D:0006H         SYMBOL        t
  -------         DO            
  D:0004H         SYMBOL        k
  -------         ENDDO         
  C:00A1H         LINE#         35
  C:00A1H         LINE#         36
  C:00A1H         LINE#         38
  C:00B2H         LINE#         39
  -------         ENDPROC       _DELAY1602
  -------         PROC          LCD1602_BUSY
  C:00C3H         LINE#         48
  C:00C3H         LINE#         49
  C:00C3H         LINE#         50
  C:00C5H         LINE#         51
  C:00C7H         LINE#         52
  C:00C9H         LINE#         53
  C:00CBH         LINE#         54
  C:00CEH         LINE#         55
  C:00D0H         LINE#         56
  -------         ENDPROC       LCD1602_BUSY
  C:00B3H         SYMBOL        L?0023
  -------         PROC          L?0022
  -------         ENDPROC       L?0022
  C:00B3H         SYMBOL        L?0023
  -------         PROC          _LCD1602_WRITE_COM
  D:0007H         SYMBOL        combuf
  C:00B8H         LINE#         65
  C:00B8H         LINE#         66
  C:00B8H         LINE#         67
  C:00BAH         LINE#         68
  C:00BCH         LINE#         69
  C:00BEH         LINE#         70
  C:00C0H         LINE#         71
  C:00C2H         LINE#         72
  -------         ENDPROC       _LCD1602_WRITE_COM
  -------         PROC          _LCD1602_WRITE_COM_BUSY
  D:0007H         SYMBOL        combuf
BL51 BANKED LINKER/LOCATER V5.00                                                      02/28/2014  09:56:02  PAGE 5


  C:00F5H         LINE#         81
  C:00F5H         LINE#         82
  C:00F5H         LINE#         83
  C:00F8H         LINE#         84
  -------         ENDPROC       _LCD1602_WRITE_COM_BUSY
  -------         PROC          _LCD1602_WRITE_DATA_BUSY
  D:0007H         SYMBOL        databuf
  C:00D1H         LINE#         94
  C:00D1H         LINE#         95
  C:00D1H         LINE#         96
  C:00D4H         LINE#         97
  C:00D6H         LINE#         98
  C:00D8H         LINE#         99
  C:00DAH         LINE#         100
  C:00DCH         LINE#         101
  C:00DEH         LINE#         102
  -------         ENDPROC       _LCD1602_WRITE_DATA_BUSY
  -------         PROC          _LCD1602_WRITE_ADDRESS
  D:0006H         SYMBOL        x
  D:0005H         SYMBOL        y
  C:0089H         LINE#         111
  C:008BH         LINE#         112
  C:008BH         LINE#         113
  C:008EH         LINE#         114
  C:0091H         LINE#         115
  C:0094H         LINE#         116
  C:0097H         LINE#         118
  C:00A0H         LINE#         119
  -------         ENDPROC       _LCD1602_WRITE_ADDRESS
  -------         PROC          LCD1602_INIT
  C:005FH         LINE#         128
  C:005FH         LINE#         129
  C:005FH         LINE#         130
  C:0063H         LINE#         131
  C:0066H         LINE#         132
  C:006AH         LINE#         133
  C:006DH         LINE#         134
  C:006FH         LINE#         135
  C:0072H         LINE#         136
  C:0075H         LINE#         137
  C:007AH         LINE#         138
  C:007FH         LINE#         139
  C:0084H         LINE#         140
  -------         ENDPROC       LCD1602_INIT
  -------         PROC          _LCD1602_DISP
  D:0006H         SYMBOL        x
  D:0005H         SYMBOL        y
  D:0004H         SYMBOL        buf
  C:00EBH         LINE#         150
  C:00EDH         LINE#         151
  C:00EDH         LINE#         152
  C:00F0H         LINE#         153
  -------         ENDPROC       _LCD1602_DISP
  -------         PROC          MAIN
  C:0003H         LINE#         163
  C:0003H         LINE#         164
  C:0003H         LINE#         166
BL51 BANKED LINKER/LOCATER V5.00                                                      02/28/2014  09:56:02  PAGE 6


  C:0006H         LINE#         169
  C:0009H         LINE#         170
  C:000CH         LINE#         171
  C:000FH         LINE#         172
  C:0012H         LINE#         173
  C:0014H         LINE#         174
  C:0017H         LINE#         175
  C:0019H         LINE#         177
  C:001BH         LINE#         178
  C:001BH         LINE#         179
  C:001BH         LINE#         182
  C:001EH         LINE#         183
  C:001EH         LINE#         184
  C:0021H         LINE#         185
  C:0023H         LINE#         186
  C:0023H         LINE#         190
  C:0026H         LINE#         194
  C:0035H         LINE#         195
  C:004BH         LINE#         196
  C:005DH         LINE#         199
  -------         ENDPROC       MAIN
  -------         ENDMOD        TEST67

Program Size: data=11.0 xdata=0 code=251
LINK/LOCATE RUN COMPLETE.  0 WARNING(S),  0 ERROR(S)
