BL51 BANKED LINKER/LOCATER V5.00                                                        09/19/2012  10:30:32  PAGE 1


BL51 BANKED LINKER/LOCATER V5.00, INVOKED BY:
C:\KEIL\C51\BIN\BL51.EXE TEST43.obj TO TEST43 RAMSIZE (256)


MEMORY MODEL: SMALL


INPUT MODULES INCLUDED:
  TEST43.obj (TEST43)
  C:\KEIL\C51\LIB\C51S.LIB (?C_STARTUP)
  C:\KEIL\C51\LIB\C51S.LIB (?C?UIDIV)


LINK MAP OF MODULE:  TEST43 (TEST43)


            TYPE    BASE      LENGTH    RELOCATION   SEGMENT NAME
            -----------------------------------------------------

            * * * * * * *   D A T A   M E M O R Y   * * * * * * *
            REG     0000H     0008H     ABSOLUTE     "REG BANK 0"
            DATA    0008H     0003H     UNIT         ?DT?TEST43
            IDATA   000BH     0001H     UNIT         ?STACK

            * * * * * * *   C O D E   M E M O R Y   * * * * * * *
            CODE    0000H     0003H     ABSOLUTE     
            CODE    0003H     0006H     UNIT         ?PR?_LCD1602_WRITE_COM_BUSY?TEST43
                    0009H     0002H                  *** GAP ***
            CODE    000BH     0003H     ABSOLUTE     
            CODE    000EH     007EH     UNIT         ?PR?MAIN?TEST43
            CODE    008CH     0055H     UNIT         ?C?LIB_CODE
            CODE    00E1H     0032H     UNIT         ?PR?TIMER0?TEST43
            CODE    0113H     002AH     UNIT         ?PR?LCD1602_INIT?TEST43
            CODE    013DH     0018H     UNIT         ?PR?_LCD1602_WRITE_ADDRESS?TEST43
            CODE    0155H     0012H     UNIT         ?PR?_DELAY1602?TEST43
            CODE    0167H     0010H     UNIT         ?PR?_LCD1602_WRITE_COM?TEST43
            CODE    0177H     000FH     UNIT         ?PR?_LCD1602_DISP?TEST43
            CODE    0186H     000EH     UNIT         ?PR?LCD1602_BUSY?TEST43
            CODE    0194H     000EH     UNIT         ?PR?_LCD1602_WRITE_DATA_BUSY?TEST43
            CODE    01A2H     000CH     UNIT         ?C_C51STARTUP



OVERLAY MAP OF MODULE:   TEST43 (TEST43)


SEGMENT
  +--> CALLED SEGMENT
---------------------
?C_C51STARTUP
  +--> ?PR?MAIN?TEST43

?PR?MAIN?TEST43
  +--> ?PR?LCD1602_INIT?TEST43
  +--> ?PR?_LCD1602_DISP?TEST43

?PR?LCD1602_INIT?TEST43
  +--> ?PR?_LCD1602_WRITE_COM?TEST43
BL51 BANKED LINKER/LOCATER V5.00                                                      09/19/2012  10:30:32  PAGE 2


  +--> ?PR?_LCD1602_WRITE_COM_BUSY?TEST43

?PR?_LCD1602_WRITE_COM?TEST43
  +--> ?PR?_DELAY1602?TEST43

?PR?_LCD1602_WRITE_COM_BUSY?TEST43
  +--> ?PR?LCD1602_BUSY?TEST43
  +--> ?PR?_LCD1602_WRITE_COM?TEST43

?PR?_LCD1602_DISP?TEST43
  +--> ?PR?_LCD1602_WRITE_ADDRESS?TEST43
  +--> ?PR?_LCD1602_WRITE_DATA_BUSY?TEST43

?PR?_LCD1602_WRITE_ADDRESS?TEST43
  +--> ?PR?_LCD1602_WRITE_COM_BUSY?TEST43

?PR?_LCD1602_WRITE_DATA_BUSY?TEST43
  +--> ?PR?LCD1602_BUSY?TEST43



SYMBOL TABLE OF MODULE:  TEST43 (TEST43)

  VALUE           TYPE          NAME
  ----------------------------------

  -------         MODULE        TEST43
  C:0000H         SYMBOL        _ICE_DUMMY_
  D:0080H         PUBLIC        P0
  D:00A0H         PUBLIC        P2
  B:00D0H.6       PUBLIC        AC
  B:00B0H.4       PUBLIC        T0
  B:00B0H.5       PUBLIC        T1
  B:00A8H.7       PUBLIC        EA
  B:0090H.0       PUBLIC        T2
  C:016CH         PUBLIC        _LCD1602_Write_com
  C:0194H         PUBLIC        _LCD1602_Write_data_busy
  B:0080H.0       PUBLIC        P0_0
  B:0090H.0       PUBLIC        P1_0
  B:0080H.1       PUBLIC        P0_1
  B:00D0H.1       PUBLIC        FL
  B:00A0H.0       PUBLIC        P2_0
  B:0090H.1       PUBLIC        P1_1
  B:0080H.2       PUBLIC        P0_2
  B:00B0H.0       PUBLIC        P3_0
  B:00A0H.1       PUBLIC        P2_1
  B:0090H.2       PUBLIC        P1_2
  B:0080H.3       PUBLIC        P0_3
  B:00B0H.1       PUBLIC        P3_1
  B:00A0H.2       PUBLIC        P2_2
  B:0090H.3       PUBLIC        P1_3
  B:0080H.4       PUBLIC        P0_4
  B:00B0H.2       PUBLIC        P3_2
  B:00A0H.3       PUBLIC        P2_3
  B:0090H.4       PUBLIC        P1_4
  B:0080H.5       PUBLIC        P0_5
  B:00C8H.6       PUBLIC        EXF2
BL51 BANKED LINKER/LOCATER V5.00                                                      09/19/2012  10:30:32  PAGE 3


  B:00B0H.7       PUBLIC        RD
  B:00B0H.3       PUBLIC        P3_3
  B:00A0H.4       PUBLIC        P2_4
  B:0090H.5       PUBLIC        P1_5
  B:0080H.6       PUBLIC        P0_6
  B:00B0H.4       PUBLIC        P3_4
  B:00A0H.5       PUBLIC        P2_5
  B:0090H.6       PUBLIC        P1_6
  B:0080H.7       PUBLIC        P0_7
  B:00B0H.5       PUBLIC        P3_5
  B:00A8H.4       PUBLIC        ES
  B:00A0H.6       PUBLIC        P2_6
  B:0090H.7       PUBLIC        P1_7
  B:00B0H.6       PUBLIC        P3_6
  B:00A0H.7       PUBLIC        P2_7
  B:00B0H.7       PUBLIC        P3_7
  B:0098H.0       PUBLIC        RI
  C:0155H         PUBLIC        _Delay1602
  B:00D0H.7       PUBLIC        CY
  B:00B0H.2       PUBLIC        INT0
  B:00B0H.3       PUBLIC        INT1
  B:0098H.1       PUBLIC        TI
  D:0008H         PUBLIC        DISbuf
  B:00B8H.4       PUBLIC        PS
  B:0090H.1       PUBLIC        T2EX
  B:00A0H.5       PUBLIC        RS
  B:00D0H.2       PUBLIC        OV
  C:000EH         PUBLIC        main
  B:00A0H.4       PUBLIC        RW
  B:00C8H.1       PUBLIC        C_T2
  B:00B0H.6       PUBLIC        WR
  B:00C8H.5       PUBLIC        RCLK
  B:00C8H.4       PUBLIC        TCLK
  C:0003H         PUBLIC        _LCD1602_Write_com_busy
  C:00E1H         PUBLIC        Timer0
  C:0113H         PUBLIC        LCD1602_init
  D:0089H         PUBLIC        TMOD
  C:013DH         PUBLIC        _LCD1602_Write_address
  B:0088H.1       PUBLIC        IE0
  B:0088H.3       PUBLIC        IE1
  C:0186H         PUBLIC        LCD1602_busy
  B:00A0H.3       PUBLIC        E
  B:00C8H.0       PUBLIC        CP_RL2
  B:00A8H.1       PUBLIC        ET0
  B:00A8H.3       PUBLIC        ET1
  B:0088H.5       PUBLIC        TF0
  B:00A8H.5       PUBLIC        ET2
  B:0088H.7       PUBLIC        TF1
  B:00C8H.7       PUBLIC        TF2
  B:0098H.2       PUBLIC        RB8
  D:008CH         PUBLIC        TH0
  B:00A8H.0       PUBLIC        EX0
  B:0088H.0       PUBLIC        IT0
  B:00A8H.2       PUBLIC        EX1
  B:0098H.3       PUBLIC        TB8
  B:0088H.2       PUBLIC        IT1
  B:00D0H.0       PUBLIC        P
BL51 BANKED LINKER/LOCATER V5.00                                                      09/19/2012  10:30:32  PAGE 4


  B:0098H.7       PUBLIC        SM0
  D:008AH         PUBLIC        TL0
  B:0098H.6       PUBLIC        SM1
  B:0098H.5       PUBLIC        SM2
  B:00B8H.1       PUBLIC        PT0
  B:00D0H.3       PUBLIC        RS0
  B:00B8H.3       PUBLIC        PT1
  B:00D0H.4       PUBLIC        RS1
  B:00B8H.5       PUBLIC        PT2
  B:0088H.4       PUBLIC        TR0
  B:0088H.6       PUBLIC        TR1
  B:00C8H.2       PUBLIC        TR2
  B:00B8H.0       PUBLIC        PX0
  B:00B8H.2       PUBLIC        PX1
  B:00C8H.3       PUBLIC        EXEN2
  B:0098H.4       PUBLIC        REN
  D:000AH         PUBLIC        i
  B:00B0H.0       PUBLIC        RXD
  C:017CH         PUBLIC        _LCD1602_Disp
  B:00B0H.1       PUBLIC        TXD
  B:00D0H.5       PUBLIC        F0
  -------         PROC          TIMER0
  C:00E1H         LINE#         30
  C:00E5H         LINE#         32
  C:00E8H         LINE#         33
  C:00EBH         LINE#         36
  C:00F4H         LINE#         37
  C:00F4H         LINE#         38
  C:00F7H         LINE#         40
  C:010EH         LINE#         42
  C:010EH         LINE#         45
  -------         ENDPROC       TIMER0
  -------         PROC          _DELAY1602
  D:0006H         SYMBOL        t
  -------         DO            
  D:0004H         SYMBOL        k
  -------         ENDDO         
  C:0155H         LINE#         53
  C:0155H         LINE#         54
  C:0155H         LINE#         56
  C:0166H         LINE#         57
  -------         ENDPROC       _DELAY1602
  -------         PROC          LCD1602_BUSY
  C:0186H         LINE#         66
  C:0186H         LINE#         67
  C:0186H         LINE#         68
  C:0188H         LINE#         69
  C:018AH         LINE#         70
  C:018CH         LINE#         71
  C:018EH         LINE#         72
  C:0191H         LINE#         73
  C:0193H         LINE#         74
  -------         ENDPROC       LCD1602_BUSY
  C:0167H         SYMBOL        L?0026
  -------         PROC          L?0025
  -------         ENDPROC       L?0025
  C:0167H         SYMBOL        L?0026
BL51 BANKED LINKER/LOCATER V5.00                                                      09/19/2012  10:30:32  PAGE 5


  -------         PROC          _LCD1602_WRITE_COM
  D:0007H         SYMBOL        combuf
  C:016CH         LINE#         83
  C:016CH         LINE#         84
  C:016CH         LINE#         85
  C:016EH         LINE#         86
  C:0170H         LINE#         87
  C:0172H         LINE#         88
  C:0174H         LINE#         89
  C:0176H         LINE#         90
  -------         ENDPROC       _LCD1602_WRITE_COM
  -------         PROC          _LCD1602_WRITE_COM_BUSY
  D:0007H         SYMBOL        combuf
  C:0003H         LINE#         99
  C:0003H         LINE#         100
  C:0003H         LINE#         101
  C:0006H         LINE#         102
  -------         ENDPROC       _LCD1602_WRITE_COM_BUSY
  -------         PROC          _LCD1602_WRITE_DATA_BUSY
  D:0007H         SYMBOL        databuf
  C:0194H         LINE#         112
  C:0194H         LINE#         113
  C:0194H         LINE#         114
  C:0197H         LINE#         115
  C:0199H         LINE#         116
  C:019BH         LINE#         117
  C:019DH         LINE#         118
  C:019FH         LINE#         119
  C:01A1H         LINE#         120
  -------         ENDPROC       _LCD1602_WRITE_DATA_BUSY
  -------         PROC          _LCD1602_WRITE_ADDRESS
  D:0006H         SYMBOL        x
  D:0005H         SYMBOL        y
  C:013DH         LINE#         129
  C:013FH         LINE#         130
  C:013FH         LINE#         131
  C:0142H         LINE#         132
  C:0145H         LINE#         133
  C:0148H         LINE#         134
  C:014BH         LINE#         136
  C:0154H         LINE#         137
  -------         ENDPROC       _LCD1602_WRITE_ADDRESS
  -------         PROC          LCD1602_INIT
  C:0113H         LINE#         146
  C:0113H         LINE#         147
  C:0113H         LINE#         148
  C:0117H         LINE#         149
  C:011AH         LINE#         150
  C:011EH         LINE#         151
  C:0121H         LINE#         152
  C:0123H         LINE#         153
  C:0126H         LINE#         154
  C:0129H         LINE#         155
  C:012EH         LINE#         156
  C:0133H         LINE#         157
  C:0138H         LINE#         158
  -------         ENDPROC       LCD1602_INIT
BL51 BANKED LINKER/LOCATER V5.00                                                      09/19/2012  10:30:32  PAGE 6


  -------         PROC          L?0027
  -------         ENDPROC       L?0027
  -------         PROC          _LCD1602_DISP
  D:0006H         SYMBOL        x
  D:0005H         SYMBOL        y
  D:0004H         SYMBOL        buf
  C:017CH         LINE#         168
  C:017EH         LINE#         169
  C:017EH         LINE#         170
  C:0181H         LINE#         171
  -------         ENDPROC       _LCD1602_DISP
  -------         PROC          MAIN
  C:000EH         LINE#         181
  C:000EH         LINE#         182
  C:000EH         LINE#         184
  C:0011H         LINE#         187
  C:0014H         LINE#         188
  C:0017H         LINE#         189
  C:001AH         LINE#         190
  C:001DH         LINE#         191
  C:001FH         LINE#         192
  C:0021H         LINE#         197
  C:0023H         LINE#         200
  C:0023H         LINE#         201
  C:0023H         LINE#         206
  C:0038H         LINE#         207
  C:0056H         LINE#         208
  C:0074H         LINE#         209
  C:008AH         LINE#         212
  -------         ENDPROC       MAIN
  -------         ENDMOD        TEST43

  -------         MODULE        ?C?UIDIV
  C:008CH         PUBLIC        ?C?UIDIV
  -------         ENDMOD        ?C?UIDIV

Program Size: data=12.0 xdata=0 code=428
LINK/LOCATE RUN COMPLETE.  0 WARNING(S),  0 ERROR(S)
