BL51 BANKED LINKER/LOCATER V5.00                                                        06/18/2013  09:46:42  PAGE 1


BL51 BANKED LINKER/LOCATER V5.00, INVOKED BY:
C:\KEIL\C51\BIN\BL51.EXE TEST70.obj TO TEST70 RAMSIZE (256)


MEMORY MODEL: SMALL


INPUT MODULES INCLUDED:
  TEST70.obj (TEST70)
  C:\KEIL\C51\LIB\C51S.LIB (?C_STARTUP)


LINK MAP OF MODULE:  TEST70 (TEST70)


            TYPE    BASE      LENGTH    RELOCATION   SEGMENT NAME
            -----------------------------------------------------

            * * * * * * *   D A T A   M E M O R Y   * * * * * * *
            REG     0000H     0008H     ABSOLUTE     "REG BANK 0"
            DATA    0008H     0003H     UNIT         ?DT?TEST70
                    000BH     0015H                  *** GAP ***
            BIT     0020H.0   0000H.1   UNIT         _BIT_GROUP_
                    0020H.1   0000H.7                *** GAP ***
            IDATA   0021H     0001H     UNIT         ?STACK

            * * * * * * *   C O D E   M E M O R Y   * * * * * * *
            CODE    0000H     0003H     ABSOLUTE     
            CODE    0003H     006DH     UNIT         ?PR?MAIN?TEST70
            CODE    0070H     003BH     UNIT         ?PR?_WRITEBYTE?TEST70
            CODE    00ABH     0033H     UNIT         ?PR?READBYTE?TEST70
            CODE    00DEH     0032H     UNIT         ?PR?RESET?TEST70
            CODE    0110H     002FH     UNIT         ?PR?READFLASH?TEST70
            CODE    013FH     0022H     UNIT         ?PR?LCD1602_INIT?TEST70
            CODE    0161H     001EH     UNIT         ?PR?_DELAY?TEST70
            CODE    017FH     0018H     UNIT         ?PR?_LCD1602_WRITE_ADDRESS?TEST70
            CODE    0197H     0014H     UNIT         ?PR?_LCD1602_WRITE_COM?TEST70
            CODE    01ABH     0013H     UNIT         ?PR?CONVERT?TEST70
            CODE    01BEH     0010H     UNIT         ?CO?TEST70
            CODE    01CEH     000EH     UNIT         ?PR?LCD1602_BUSY?TEST70
            CODE    01DCH     000EH     UNIT         ?PR?_LCD1602_WRITE_DATA_BUSY?TEST70
            CODE    01EAH     000CH     UNIT         ?C_C51STARTUP
            CODE    01F6H     000AH     UNIT         ?PR?_LCD1602_DISP?TEST70
            CODE    0200H     0006H     UNIT         ?PR?_LCD1602_WRITE_COM_BUSY?TEST70



OVERLAY MAP OF MODULE:   TEST70 (TEST70)


SEGMENT                                        BIT_GROUP 
  +--> CALLED SEGMENT                       START    LENGTH
-----------------------------------------------------------
?C_C51STARTUP                               -----    -----
  +--> ?PR?MAIN?TEST70

?PR?MAIN?TEST70                             -----    -----
  +--> ?PR?LCD1602_INIT?TEST70
BL51 BANKED LINKER/LOCATER V5.00                                                      06/18/2013  09:46:42  PAGE 2


  +--> ?PR?CONVERT?TEST70
  +--> ?PR?READFLASH?TEST70
  +--> ?PR?_LCD1602_DISP?TEST70
  +--> ?CO?TEST70

?PR?LCD1602_INIT?TEST70                     -----    -----
  +--> ?PR?_LCD1602_WRITE_COM?TEST70
  +--> ?PR?_LCD1602_WRITE_COM_BUSY?TEST70

?PR?_LCD1602_WRITE_COM?TEST70               -----    -----
  +--> ?PR?_DELAY?TEST70

?PR?_LCD1602_WRITE_COM_BUSY?TEST70          -----    -----
  +--> ?PR?LCD1602_BUSY?TEST70
  +--> ?PR?_LCD1602_WRITE_COM?TEST70

?PR?CONVERT?TEST70                          -----    -----
  +--> ?PR?RESET?TEST70
  +--> ?PR?_WRITEBYTE?TEST70

?PR?RESET?TEST70                            0020H.0  0000H.1

?PR?READFLASH?TEST70                        -----    -----
  +--> ?PR?RESET?TEST70
  +--> ?PR?_WRITEBYTE?TEST70
  +--> ?PR?READBYTE?TEST70

?PR?_LCD1602_DISP?TEST70                    -----    -----
  +--> ?PR?_LCD1602_WRITE_ADDRESS?TEST70
  +--> ?PR?_LCD1602_WRITE_DATA_BUSY?TEST70

?PR?_LCD1602_WRITE_ADDRESS?TEST70           -----    -----
  +--> ?PR?_LCD1602_WRITE_COM_BUSY?TEST70

?PR?_LCD1602_WRITE_DATA_BUSY?TEST70         -----    -----
  +--> ?PR?LCD1602_BUSY?TEST70



SYMBOL TABLE OF MODULE:  TEST70 (TEST70)

  VALUE           TYPE          NAME
  ----------------------------------

  -------         MODULE        TEST70
  C:0000H         SYMBOL        _ICE_DUMMY_
  D:0080H         PUBLIC        P0
  D:00A0H         PUBLIC        P2
  D:00B0H         PUBLIC        P3
  B:00D0H.6       PUBLIC        AC
  B:00B0H.4       PUBLIC        T0
  C:0070H         PUBLIC        _WriteByte
  B:00B0H.5       PUBLIC        T1
  C:00DEH         PUBLIC        Reset
  B:00A8H.7       PUBLIC        EA
  B:0090H.0       PUBLIC        T2
  B:00B0H.7       PUBLIC        ds18b20
BL51 BANKED LINKER/LOCATER V5.00                                                      06/18/2013  09:46:42  PAGE 3


  C:01BEH         PUBLIC        table
  C:01A0H         PUBLIC        _LCD1602_Write_com
  C:01DCH         PUBLIC        _LCD1602_Write_data_busy
  B:0080H.0       PUBLIC        P0_0
  B:0090H.0       PUBLIC        P1_0
  B:0080H.1       PUBLIC        P0_1
  B:00D0H.1       PUBLIC        FL
  B:00A0H.0       PUBLIC        P2_0
  B:0090H.1       PUBLIC        P1_1
  B:0080H.2       PUBLIC        P0_2
  B:00B0H.0       PUBLIC        P3_0
  B:00A0H.1       PUBLIC        P2_1
  B:0090H.2       PUBLIC        P1_2
  B:0080H.3       PUBLIC        P0_3
  B:00B0H.1       PUBLIC        P3_1
  B:00A0H.2       PUBLIC        P2_2
  B:0090H.3       PUBLIC        P1_3
  B:0080H.4       PUBLIC        P0_4
  C:00ABH         PUBLIC        ReadByte
  B:00B0H.2       PUBLIC        P3_2
  B:00A0H.3       PUBLIC        P2_3
  B:0090H.4       PUBLIC        P1_4
  B:0080H.5       PUBLIC        P0_5
  B:00C8H.6       PUBLIC        EXF2
  B:00B0H.7       PUBLIC        RD
  B:00B0H.3       PUBLIC        P3_3
  B:00A0H.4       PUBLIC        P2_4
  B:0090H.5       PUBLIC        P1_5
  B:0080H.6       PUBLIC        P0_6
  B:00B0H.4       PUBLIC        P3_4
  B:00A0H.5       PUBLIC        P2_5
  B:0090H.6       PUBLIC        P1_6
  B:0080H.7       PUBLIC        P0_7
  B:00B0H.5       PUBLIC        P3_5
  B:00A8H.4       PUBLIC        ES
  B:00A0H.6       PUBLIC        P2_6
  B:0090H.7       PUBLIC        P1_7
  B:00B0H.6       PUBLIC        P3_6
  B:00A0H.7       PUBLIC        P2_7
  B:00B0H.7       PUBLIC        P3_7
  B:0098H.0       PUBLIC        RI
  B:00D0H.7       PUBLIC        CY
  B:00B0H.2       PUBLIC        INT0
  B:00B0H.3       PUBLIC        INT1
  B:0098H.1       PUBLIC        TI
  D:0008H         PUBLIC        DISbuf
  B:00B8H.4       PUBLIC        PS
  B:0090H.1       PUBLIC        T2EX
  B:00A0H.5       PUBLIC        RS
  B:00D0H.2       PUBLIC        OV
  C:0003H         PUBLIC        main
  B:00A0H.4       PUBLIC        RW
  B:00C8H.1       PUBLIC        C_T2
  B:00B0H.6       PUBLIC        WR
  B:00C8H.5       PUBLIC        RCLK
  B:00C8H.4       PUBLIC        TCLK
  C:0200H         PUBLIC        _LCD1602_Write_com_busy
BL51 BANKED LINKER/LOCATER V5.00                                                      06/18/2013  09:46:42  PAGE 4


  C:013FH         PUBLIC        LCD1602_init
  C:017FH         PUBLIC        _LCD1602_Write_address
  B:0088H.1       PUBLIC        IE0
  B:0088H.3       PUBLIC        IE1
  C:01CEH         PUBLIC        LCD1602_busy
  B:00A0H.3       PUBLIC        E
  B:00C8H.0       PUBLIC        CP_RL2
  B:00A8H.1       PUBLIC        ET0
  B:00A8H.3       PUBLIC        ET1
  B:0088H.5       PUBLIC        TF0
  B:00A8H.5       PUBLIC        ET2
  B:0088H.7       PUBLIC        TF1
  B:00C8H.7       PUBLIC        TF2
  B:0098H.2       PUBLIC        RB8
  B:00A8H.0       PUBLIC        EX0
  B:0088H.0       PUBLIC        IT0
  B:00A8H.2       PUBLIC        EX1
  B:0098H.3       PUBLIC        TB8
  B:0088H.2       PUBLIC        IT1
  B:00D0H.0       PUBLIC        P
  B:0098H.7       PUBLIC        SM0
  C:0161H         PUBLIC        _Delay
  B:0098H.6       PUBLIC        SM1
  B:0098H.5       PUBLIC        SM2
  B:00B8H.1       PUBLIC        PT0
  B:00D0H.3       PUBLIC        RS0
  B:00B8H.3       PUBLIC        PT1
  B:00D0H.4       PUBLIC        RS1
  B:00B8H.5       PUBLIC        PT2
  B:0088H.4       PUBLIC        TR0
  B:0088H.6       PUBLIC        TR1
  B:00C8H.2       PUBLIC        TR2
  B:00B8H.0       PUBLIC        PX0
  B:00B8H.2       PUBLIC        PX1
  B:00C8H.3       PUBLIC        EXEN2
  C:01ABH         PUBLIC        Convert
  B:0098H.4       PUBLIC        REN
  D:0009H         PUBLIC        temp1
  D:000AH         PUBLIC        temp2
  B:00B0H.0       PUBLIC        RXD
  C:0110H         PUBLIC        ReadFlash
  C:01F6H         PUBLIC        _LCD1602_Disp
  B:00B0H.1       PUBLIC        TXD
  B:00D0H.5       PUBLIC        F0
  -------         PROC          _DELAY
  D:0006H         SYMBOL        nTimeDelay
  -------         DO            
  D:0004H         SYMBOL        i
  -------         ENDDO         
  C:0161H         LINE#         33
  C:0161H         LINE#         34
  C:0161H         LINE#         36
  C:016BH         LINE#         37
  C:017EH         LINE#         38
  -------         ENDPROC       _DELAY
  -------         PROC          RESET
  -------         DO            
BL51 BANKED LINKER/LOCATER V5.00                                                      06/18/2013  09:46:42  PAGE 5


  D:0006H         SYMBOL        i
  B:0020H.0       SYMBOL        k
  -------         ENDDO         
  C:00DEH         LINE#         46
  C:00DEH         LINE#         47
  C:00DEH         LINE#         50
  C:00E0H         LINE#         51
  C:00E4H         LINE#         52
  C:00E4H         LINE#         53
  C:00EDH         LINE#         54
  C:00EFH         LINE#         55
  C:00F3H         LINE#         56
  C:00F3H         LINE#         57
  C:00FCH         LINE#         58
  C:0100H         LINE#         59
  C:0104H         LINE#         60
  C:0104H         LINE#         61
  C:010DH         LINE#         62
  C:010FH         LINE#         63
  -------         ENDPROC       RESET
  -------         PROC          READBYTE
  -------         DO            
  D:0004H         SYMBOL        i
  D:0006H         SYMBOL        j
  D:0007H         SYMBOL        buf
  -------         ENDDO         
  C:00ABH         LINE#         71
  C:00ABH         LINE#         72
  C:00ABH         LINE#         74
  C:00ADH         LINE#         75
  C:00AEH         LINE#         76
  C:00AEH         LINE#         77
  C:00B2H         LINE#         78
  C:00B4H         LINE#         79
  C:00B5H         LINE#         80
  C:00B6H         LINE#         81
  C:00B7H         LINE#         82
  C:00B8H         LINE#         83
  C:00BAH         LINE#         84
  C:00BBH         LINE#         85
  C:00BCH         LINE#         86
  C:00BDH         LINE#         87
  C:00BEH         LINE#         88
  C:00BFH         LINE#         89
  C:00C0H         LINE#         90
  C:00C1H         LINE#         91
  C:00C2H         LINE#         92
  C:00C3H         LINE#         93
  C:00C4H         LINE#         94
  C:00C5H         LINE#         95
  C:00C6H         LINE#         96
  C:00CCH         LINE#         97
  C:00D0H         LINE#         98
  C:00D0H         LINE#         99
  C:00D9H         LINE#         100
  C:00DDH         LINE#         101
  C:00DDH         LINE#         102
BL51 BANKED LINKER/LOCATER V5.00                                                      06/18/2013  09:46:42  PAGE 6


  -------         ENDPROC       READBYTE
  -------         PROC          _WRITEBYTE
  D:0007H         SYMBOL        dat
  -------         DO            
  D:0004H         SYMBOL        i
  D:0006H         SYMBOL        j
  -------         ENDDO         
  C:0070H         LINE#         111
  C:0070H         LINE#         112
  C:0070H         LINE#         115
  C:0072H         LINE#         116
  C:0072H         LINE#         117
  C:0076H         LINE#         118
  C:0076H         LINE#         119
  C:0078H         LINE#         120
  C:0079H         LINE#         121
  C:007AH         LINE#         122
  C:007BH         LINE#         123
  C:007CH         LINE#         124
  C:007EH         LINE#         125
  C:0082H         LINE#         126
  C:0082H         LINE#         127
  C:008DH         LINE#         128
  C:008DH         LINE#         130
  C:008DH         LINE#         131
  C:008FH         LINE#         132
  C:0093H         LINE#         133
  C:0093H         LINE#         134
  C:009CH         LINE#         135
  C:009EH         LINE#         136
  C:009FH         LINE#         137
  C:00A0H         LINE#         138
  C:00A1H         LINE#         139
  C:00A2H         LINE#         140
  C:00A2H         LINE#         141
  C:00A6H         LINE#         142
  C:00AAH         LINE#         143
  -------         ENDPROC       _WRITEBYTE
  -------         PROC          CONVERT
  C:01ABH         LINE#         152
  C:01ABH         LINE#         153
  C:01ABH         LINE#         154
  C:01B0H         LINE#         155
  C:01B0H         LINE#         156
  C:01B5H         LINE#         157
  C:01BAH         LINE#         158
  C:01BCH         LINE#         159
  C:01BCH         LINE#         161
  C:01BCH         LINE#         162
  C:01BDH         LINE#         163
  C:01BDH         LINE#         164
  -------         ENDPROC       CONVERT
  -------         PROC          READFLASH
  -------         DO            
  D:0003H         SYMBOL        Lsb
  D:0007H         SYMBOL        Msb
  -------         ENDDO         
BL51 BANKED LINKER/LOCATER V5.00                                                      06/18/2013  09:46:42  PAGE 7


  C:0110H         LINE#         173
  C:0110H         LINE#         174
  C:0110H         LINE#         176
  C:0115H         LINE#         177
  C:0115H         LINE#         178
  C:011AH         LINE#         179
  C:011FH         LINE#         180
  C:0124H         LINE#         181
  C:0127H         LINE#         182
  C:012CH         LINE#         183
  C:0138H         LINE#         184
  C:0139H         LINE#         186
  C:0139H         LINE#         187
  C:013CH         LINE#         188
  C:013EH         LINE#         189
  C:013EH         LINE#         190
  -------         ENDPROC       READFLASH
  -------         PROC          LCD1602_BUSY
  C:01CEH         LINE#         198
  C:01CEH         LINE#         199
  C:01CEH         LINE#         200
  C:01D0H         LINE#         201
  C:01D2H         LINE#         202
  C:01D4H         LINE#         203
  C:01D6H         LINE#         204
  C:01D9H         LINE#         205
  C:01DBH         LINE#         206
  -------         ENDPROC       LCD1602_BUSY
  C:0199H         SYMBOL        L?0064
  -------         PROC          L?0063
  -------         ENDPROC       L?0063
  C:0199H         SYMBOL        L?0064
  -------         PROC          _LCD1602_WRITE_COM
  D:0007H         SYMBOL        combuf
  C:01A0H         LINE#         215
  C:01A0H         LINE#         216
  C:01A0H         LINE#         217
  C:01A2H         LINE#         218
  C:01A4H         LINE#         219
  C:01A6H         LINE#         220
  C:01A8H         LINE#         221
  C:01AAH         LINE#         222
  -------         ENDPROC       _LCD1602_WRITE_COM
  -------         PROC          _LCD1602_WRITE_COM_BUSY
  D:0007H         SYMBOL        combuf
  C:0200H         LINE#         231
  C:0200H         LINE#         232
  C:0200H         LINE#         233
  C:0203H         LINE#         234
  -------         ENDPROC       _LCD1602_WRITE_COM_BUSY
  -------         PROC          _LCD1602_WRITE_DATA_BUSY
  D:0007H         SYMBOL        databuf
  C:01DCH         LINE#         244
  C:01DCH         LINE#         245
  C:01DCH         LINE#         246
  C:01DFH         LINE#         247
  C:01E1H         LINE#         248
BL51 BANKED LINKER/LOCATER V5.00                                                      06/18/2013  09:46:42  PAGE 8


  C:01E3H         LINE#         249
  C:01E5H         LINE#         250
  C:01E7H         LINE#         251
  C:01E9H         LINE#         252
  -------         ENDPROC       _LCD1602_WRITE_DATA_BUSY
  -------         PROC          _LCD1602_WRITE_ADDRESS
  D:0006H         SYMBOL        x
  D:0005H         SYMBOL        y
  C:017FH         LINE#         261
  C:0181H         LINE#         262
  C:0181H         LINE#         263
  C:0184H         LINE#         264
  C:0187H         LINE#         265
  C:018AH         LINE#         266
  C:018DH         LINE#         268
  C:0196H         LINE#         269
  -------         ENDPROC       _LCD1602_WRITE_ADDRESS
  -------         PROC          LCD1602_INIT
  C:013FH         LINE#         278
  C:013FH         LINE#         279
  C:013FH         LINE#         280
  C:0141H         LINE#         281
  C:0144H         LINE#         282
  C:0144H         LINE#         283
  C:0147H         LINE#         284
  C:0147H         LINE#         285
  C:014AH         LINE#         286
  C:014DH         LINE#         287
  C:0152H         LINE#         288
  C:0157H         LINE#         289
  C:015CH         LINE#         290
  -------         ENDPROC       LCD1602_INIT
  -------         PROC          _LCD1602_DISP
  D:0006H         SYMBOL        x
  D:0005H         SYMBOL        y
  D:0004H         SYMBOL        buf
  C:01F6H         LINE#         300
  C:01F8H         LINE#         301
  C:01F8H         LINE#         302
  C:01FBH         LINE#         303
  -------         ENDPROC       _LCD1602_DISP
  -------         PROC          MAIN
  C:0003H         LINE#         313
  C:0003H         LINE#         314
  C:0003H         LINE#         315
  C:0006H         LINE#         316
  C:0006H         LINE#         317
  C:0006H         LINE#         318
  C:000BH         LINE#         319
  C:000BH         LINE#         320
  C:000EH         LINE#         321
  C:0018H         LINE#         322
  C:0022H         LINE#         323
  C:0031H         LINE#         324
  C:0043H         LINE#         325
  C:004CH         LINE#         326
  C:005CH         LINE#         327
BL51 BANKED LINKER/LOCATER V5.00                                                      06/18/2013  09:46:42  PAGE 9


  C:0065H         LINE#         328
  C:006EH         LINE#         329
  C:006EH         LINE#         330
  -------         ENDPROC       MAIN
  -------         ENDMOD        TEST70

Program Size: data=12.1 xdata=0 code=518
LINK/LOCATE RUN COMPLETE.  0 WARNING(S),  0 ERROR(S)
